(dp0
S'crazy'
p1
I19
sS'pissed off'
p2
I35
sS'tired'
p3
I39
sS'exhausted'
p4
I26
sS'sleepy'
p5
I38
sS'confused'
p6
I15
sS'sad'
p7
I36
sS'cheerful'
p8
I12
sS'blah'
p9
I6
sS'bouncy'
p10
I9
sS'lonely'
p11
I32
sS'blank'
p12
I7
sS'cold'
p13
I14
sS'busy'
p14
I10
sS'drained'
p15
I23
sS'hopeful'
p16
I30
sS'creative'
p17
I20
sS'content'
p18
I17
sS'contemplative'
p19
I16
sS'calm'
p20
I11
sS'sick'
p21
I37
sS'bored'
p22
I8
sS'frustrated'
p23
I27
sS'excited'
p24
I25
sS'happy'
p25
I29
sS'good'
p26
I28
sS'okay'
p27
I34
sS'ecstatic'
p28
I24
sS'loved'
p29
I33
sS'crushed'
p30
I21
sS'crappy'
p31
I18
sS'awake'
p32
I5
sS'aggravated'
p33
I1
sS'depressed'
p34
I22
sS'hungry'
p35
I31
sS'amused'
p36
I2
sS'anxious'
p37
I4
sS'accomplished'
p38
I0
sS'chipper'
p39
I13
sS'annoyed'
p40
I3
s.